Certificate:
    Data:
        Version: 3 (0x2)
        Serial Number: 0 (0x0)
    Signature Algorithm: sha256WithRSAEncryption
        Issuer: C=JP, ST=Tokyo, O=ca-company, CN=my-ca
        Validity
            Not Before: Jun  2 00:50:34 2019 GMT
            Not After : May  9 00:50:34 2119 GMT
        Subject: C=JP, ST=Tokyo, O=ca-company, CN=my-ca
        Subject Public Key Info:
            Public Key Algorithm: rsaEncryption
                Public-Key: (2048 bit)
                Modulus:
                    00:bf:d5:08:e9:37:95:01:96:1d:62:bc:84:6c:2d:
                    cf:81:90:36:3d:4b:a7:80:a2:fc:f1:e2:d9:82:fe:
                    3f:f4:6c:5f:e6:4e:de:42:52:42:37:bc:e9:90:fd:
                    b4:4b:b1:df:7d:7f:20:ce:a9:13:88:68:1a:8c:bb:
                    02:b5:bb:67:d7:c9:1e:48:2e:fa:e2:67:e1:d3:dd:
                    d7:13:4b:5d:51:d0:aa:ad:9c:cd:81:41:03:cb:30:
                    00:8d:3f:9a:06:ec:d7:86:5d:7f:5c:e5:db:da:a3:
                    ed:84:2b:60:6d:5b:ac:64:ed:df:c0:9e:42:1d:9d:
                    e6:33:38:49:8a:fc:e8:6b:49:93:17:10:55:c2:f2:
                    be:50:f7:39:a3:37:a1:44:19:94:8e:10:55:48:ed:
                    9b:f7:de:d7:05:e3:c7:b2:6e:ef:e5:47:90:6e:45:
                    28:73:dc:50:fd:e1:1e:71:9b:74:6e:2e:fb:8c:d9:
                    2b:8b:49:02:0d:5c:d9:d0:9e:00:51:33:70:63:0b:
                    16:66:41:5e:9f:98:f5:04:93:0f:ea:ba:74:43:cf:
                    37:f4:e8:04:15:ad:b9:6d:5f:ca:de:0b:f2:af:7c:
                    74:14:53:62:2c:5c:ff:76:9e:55:d2:52:15:f6:d5:
                    ad:de:e3:2f:30:8f:fd:92:39:6d:63:fc:ce:41:60:
                    72:6f
                Exponent: 65537 (0x10001)
        X509v3 extensions:
            X509v3 Subject Key Identifier: 
                6D:E5:84:43:E4:B8:30:7E:D0:5A:28:93:FF:81:9F:96:36:DD:05:B8
            X509v3 Authority Key Identifier: 
                keyid:6D:E5:84:43:E4:B8:30:7E:D0:5A:28:93:FF:81:9F:96:36:DD:05:B8

            X509v3 Basic Constraints: 
                CA:TRUE
    Signature Algorithm: sha256WithRSAEncryption
         a5:3e:e7:a9:6e:24:79:f8:81:d8:07:32:60:30:ae:5b:dc:8c:
         a3:eb:15:36:0b:ba:ba:17:f7:10:61:ac:50:70:eb:16:8b:4e:
         26:c1:48:f4:20:42:e6:4a:e2:b4:08:07:16:7d:93:21:c6:97:
         0b:82:ce:50:87:53:dc:f8:77:53:89:26:e1:08:ce:8e:83:e1:
         2c:2d:af:1d:ad:c2:29:3e:6b:89:f7:53:dd:69:c5:b3:b1:ea:
         dd:3c:46:03:30:ae:18:92:ca:83:9f:67:a1:82:1f:35:44:e2:
         5e:69:cc:1c:c8:2e:9e:79:73:00:b3:bd:ce:29:c7:f2:77:41:
         6c:62:d3:7d:b2:32:c9:28:c9:d8:51:31:9b:05:7e:c3:ed:81:
         30:32:9d:3e:ae:5f:dc:2d:c0:ad:7c:da:32:83:a9:5d:f4:d7:
         3f:71:d2:bc:a1:bf:4b:d6:bc:b5:18:83:d0:f1:92:f9:fd:c0:
         57:ed:eb:c9:c1:ed:11:4d:65:7d:84:5e:20:86:b9:fd:c3:67:
         23:0d:8c:05:09:7a:05:be:2a:cd:fe:d4:e1:b1:ec:9a:84:37:
         8a:4a:41:3f:99:3b:29:9d:2d:9b:06:a6:9d:97:25:26:44:20:
         61:67:cb:29:d8:fa:60:68:e8:03:05:b1:04:ec:97:62:2a:28:
         23:d2:10:37
-----BEGIN CERTIFICATE-----
MIIDUTCCAjmgAwIBAgIBADANBgkqhkiG9w0BAQsFADBCMQswCQYDVQQGEwJKUDEO
MAwGA1UECAwFVG9reW8xEzARBgNVBAoMCmNhLWNvbXBhbnkxDjAMBgNVBAMMBW15
LWNhMCAXDTE5MDYwMjAwNTAzNFoYDzIxMTkwNTA5MDA1MDM0WjBCMQswCQYDVQQG
EwJKUDEOMAwGA1UECAwFVG9reW8xEzARBgNVBAoMCmNhLWNvbXBhbnkxDjAMBgNV
BAMMBW15LWNhMIIBIjANBgkqhkiG9w0BAQEFAAOCAQ8AMIIBCgKCAQEAv9UI6TeV
AZYdYryEbC3PgZA2PUungKL88eLZgv4/9Gxf5k7eQlJCN7zpkP20S7HffX8gzqkT
iGgajLsCtbtn18keSC764mfh093XE0tdUdCqrZzNgUEDyzAAjT+aBuzXhl1/XOXb
2qPthCtgbVusZO3fwJ5CHZ3mMzhJivzoa0mTFxBVwvK+UPc5ozehRBmUjhBVSO2b
997XBePHsm7v5UeQbkUoc9xQ/eEecZt0bi77jNkri0kCDVzZ0J4AUTNwYwsWZkFe
n5j1BJMP6rp0Q8839OgEFa25bV/K3gvyr3x0FFNiLFz/dp5V0lIV9tWt3uMvMI/9
kjltY/zOQWBybwIDAQABo1AwTjAdBgNVHQ4EFgQUbeWEQ+S4MH7QWiiT/4Gfljbd
BbgwHwYDVR0jBBgwFoAUbeWEQ+S4MH7QWiiT/4GfljbdBbgwDAYDVR0TBAUwAwEB
/zANBgkqhkiG9w0BAQsFAAOCAQEApT7nqW4kefiB2AcyYDCuW9yMo+sVNgu6uhf3
EGGsUHDrFotOJsFI9CBC5kritAgHFn2TIcaXC4LOUIdT3Ph3U4km4QjOjoPhLC2v
Ha3CKT5rifdT3WnFs7Hq3TxGAzCuGJLKg59noYIfNUTiXmnMHMgunnlzALO9zinH
8ndBbGLTfbIyySjJ2FExmwV+w+2BMDKdPq5f3C3ArXzaMoOpXfTXP3HSvKG/S9a8
tRiD0PGS+f3AV+3rycHtEU1lfYReIIa5/cNnIw2MBQl6Bb4qzf7U4bHsmoQ3ikpB
P5k7KZ0tmwamnZclJkQgYWfLKdj6YGjoAwWxBOyXYiooI9IQNw==
-----END CERTIFICATE-----
