Certificate:
    Data:
        Version: 3 (0x2)
        Serial Number: 0 (0x0)
    Signature Algorithm: sha256WithRSAEncryption
        Issuer: C=JP, ST=Tokyo, O=ca-company, CN=my-ca
        Validity
            Not Before: Apr 14 07:29:33 2019 GMT
            Not After : Mar 21 07:29:33 2119 GMT
        Subject: C=JP, ST=Tokyo, O=ca-company, CN=my-ca
        Subject Public Key Info:
            Public Key Algorithm: rsaEncryption
                Public-Key: (2048 bit)
                Modulus:
                    00:c6:bc:db:56:97:18:5a:bc:2f:37:04:80:b4:c0:
                    72:ee:02:e9:a7:81:14:3f:0a:cf:fb:d7:c4:68:df:
                    ad:1a:38:10:cd:73:4f:d4:e4:b6:fa:b8:3e:68:91:
                    8f:80:f8:56:8f:71:1c:a6:9d:db:bb:0d:b4:19:03:
                    c9:4c:37:03:e8:71:06:fd:bf:55:32:9d:55:c1:56:
                    77:61:6e:d1:bb:cb:a2:28:cd:c5:4a:43:b5:fb:54:
                    06:4d:e8:35:22:fa:f8:5d:ef:ee:8a:98:ca:aa:a1:
                    1d:0e:e5:a8:bb:e7:b7:30:87:c2:7a:e1:ec:cc:fa:
                    90:38:f6:22:a3:45:27:fc:71:23:1e:91:d8:19:05:
                    8a:ee:c3:47:d7:6d:56:99:21:1b:68:0f:0a:79:c5:
                    2c:4e:75:65:19:4c:84:85:24:4a:8e:fe:95:71:b0:
                    c1:8b:a8:aa:69:9a:40:02:2b:c4:a9:f7:01:f6:7c:
                    62:76:2b:77:e7:a2:d0:40:57:b7:4a:9f:18:6c:b3:
                    08:b2:fe:61:bf:33:b4:80:ed:08:14:ef:70:12:89:
                    8c:7d:7a:b5:80:cc:84:eb:71:b9:7d:1e:d0:53:33:
                    8c:ad:1c:f3:1b:e4:25:1f:ca:74:59:5f:13:11:d2:
                    6b:a6:4e:5d:0b:c0:18:59:4f:e5:1a:83:b0:8e:9d:
                    0f:9f
                Exponent: 65537 (0x10001)
        X509v3 extensions:
            X509v3 Subject Key Identifier: 
                28:E0:57:37:36:D0:9F:E2:17:BB:58:1C:31:26:44:3A:16:97:2B:F1
            X509v3 Authority Key Identifier: 
                keyid:28:E0:57:37:36:D0:9F:E2:17:BB:58:1C:31:26:44:3A:16:97:2B:F1

            X509v3 Basic Constraints: 
                CA:TRUE
    Signature Algorithm: sha256WithRSAEncryption
         7d:ee:2c:ca:5c:24:02:15:9f:fc:54:66:30:d8:0d:6b:a6:cc:
         25:c9:b2:cb:70:fa:86:06:2a:2d:cc:ae:e8:7e:2f:d4:81:9a:
         43:82:8e:40:bf:b2:1f:dd:1a:94:1f:6b:99:2d:ab:80:9d:43:
         00:42:bd:76:04:32:66:36:09:b1:45:34:19:9c:2f:db:2e:65:
         0f:e9:fa:ad:99:eb:b4:5e:53:0a:35:35:c2:28:d1:f9:70:7b:
         44:ba:9c:70:3b:2b:94:60:03:5d:89:08:b7:e7:3b:3d:f6:c7:
         5d:80:31:e9:c5:1e:a6:d3:7c:71:9a:31:68:03:e3:c2:6f:8b:
         f2:01:21:52:01:46:96:f1:29:c9:1d:da:df:39:c3:1d:1f:95:
         cc:63:89:82:e9:46:06:15:6a:c4:a0:52:2d:2a:3e:a8:53:2a:
         2a:43:35:39:98:6e:cd:6a:3a:09:6d:53:23:af:ab:af:17:d2:
         f4:ba:ed:b5:92:e6:de:25:40:8b:4f:4d:e5:2b:92:1a:ea:d4:
         e1:ca:61:7a:36:86:5d:b9:05:bb:6e:a3:d6:34:42:70:c8:d6:
         27:77:41:e8:72:68:31:09:81:2e:87:8e:68:3c:43:3c:1d:f3:
         0d:1c:5f:62:08:84:58:90:ff:2d:b4:ec:c8:e2:1c:28:5a:f5:
         8f:f0:a3:a6
-----BEGIN CERTIFICATE-----
MIIDUTCCAjmgAwIBAgIBADANBgkqhkiG9w0BAQsFADBCMQswCQYDVQQGEwJKUDEO
MAwGA1UECAwFVG9reW8xEzARBgNVBAoMCmNhLWNvbXBhbnkxDjAMBgNVBAMMBW15
LWNhMCAXDTE5MDQxNDA3MjkzM1oYDzIxMTkwMzIxMDcyOTMzWjBCMQswCQYDVQQG
EwJKUDEOMAwGA1UECAwFVG9reW8xEzARBgNVBAoMCmNhLWNvbXBhbnkxDjAMBgNV
BAMMBW15LWNhMIIBIjANBgkqhkiG9w0BAQEFAAOCAQ8AMIIBCgKCAQEAxrzbVpcY
WrwvNwSAtMBy7gLpp4EUPwrP+9fEaN+tGjgQzXNP1OS2+rg+aJGPgPhWj3Ecpp3b
uw20GQPJTDcD6HEG/b9VMp1VwVZ3YW7Ru8uiKM3FSkO1+1QGTeg1Ivr4Xe/uipjK
qqEdDuWou+e3MIfCeuHszPqQOPYio0Un/HEjHpHYGQWK7sNH121WmSEbaA8KecUs
TnVlGUyEhSRKjv6VcbDBi6iqaZpAAivEqfcB9nxidit356LQQFe3Sp8YbLMIsv5h
vzO0gO0IFO9wEomMfXq1gMyE63G5fR7QUzOMrRzzG+QlH8p0WV8TEdJrpk5dC8AY
WU/lGoOwjp0PnwIDAQABo1AwTjAdBgNVHQ4EFgQUKOBXNzbQn+IXu1gcMSZEOhaX
K/EwHwYDVR0jBBgwFoAUKOBXNzbQn+IXu1gcMSZEOhaXK/EwDAYDVR0TBAUwAwEB
/zANBgkqhkiG9w0BAQsFAAOCAQEAfe4sylwkAhWf/FRmMNgNa6bMJcmyy3D6hgYq
Lcyu6H4v1IGaQ4KOQL+yH90alB9rmS2rgJ1DAEK9dgQyZjYJsUU0GZwv2y5lD+n6
rZnrtF5TCjU1wijR+XB7RLqccDsrlGADXYkIt+c7PfbHXYAx6cUeptN8cZoxaAPj
wm+L8gEhUgFGlvEpyR3a3znDHR+VzGOJgulGBhVqxKBSLSo+qFMqKkM1OZhuzWo6
CW1TI6+rrxfS9LrttZLm3iVAi09N5SuSGurU4cphejaGXbkFu26j1jRCcMjWJ3dB
6HJoMQmBLoeOaDxDPB3zDRxfYgiEWJD/LbTsyOIcKFr1j/Cjpg==
-----END CERTIFICATE-----
